target datalayout = "e-m:e-p270:32:32-p271:32:32-p272:64:64-i64:64-i128:128-f80:128-n8:16:32:64-S128"
target triple = "x86_64-pc-linux-gnu"

%"class.g2o::BaseVertex" = type { %"class.g2o::OptimizableGraph::Vertex", %"class.Eigen::Map", %"class.Eigen::Matrix", %"class.Eigen::Matrix", %"class.std::stack", [8 x i8] }
%"class.g2o::OptimizableGraph::Vertex" = type { %"class.g2o::HyperGraph::Vertex", %"class.g2o::HyperGraph::DataContainer", ptr, ptr, i32, i8, i8, i32, i32, [8 x i8], ptr }
%"class.g2o::HyperGraph::Vertex" = type { %"struct.g2o::HyperGraph::HyperGraphElement", i32, %"class.std::set" }
%"struct.g2o::HyperGraph::HyperGraphElement" = type { ptr }
%"class.std::set" = type { %"class.std::_Rb_tree" }
%"class.std::_Rb_tree" = type { %"struct.std::_Rb_tree<g2o::HyperGraph::Edge *, g2o::HyperGraph::Edge *, std::_Identity<g2o::HyperGraph::Edge *>, std::less<g2o::HyperGraph::Edge *>>::_Rb_tree_impl" }
%"struct.std::_Rb_tree<g2o::HyperGraph::Edge *, g2o::HyperGraph::Edge *, std::_Identity<g2o::HyperGraph::Edge *>, std::less<g2o::HyperGraph::Edge *>>::_Rb_tree_impl" = type { [8 x i8], %"struct.std::_Rb_tree_header" }
%"struct.std::_Rb_tree_header" = type { %"struct.std::_Rb_tree_node_base", i64 }
%"struct.std::_Rb_tree_node_base" = type { i32, ptr, ptr, ptr }
%"class.g2o::HyperGraph::DataContainer" = type { ptr, ptr }
%"class.Eigen::Map" = type { %"class.Eigen::MapBase.base.4", [6 x i8] }
%"class.Eigen::MapBase.base.4" = type { %"class.Eigen::MapBase.base" }
%"class.Eigen::MapBase.base" = type <{ ptr, [2 x i8] }>
%"class.Eigen::Matrix" = type { %"class.Eigen::PlainObjectBase" }
%"class.Eigen::PlainObjectBase" = type { %"class.Eigen::DenseStorage" }
%"class.Eigen::DenseStorage" = type { %"struct.Eigen::internal::plain_array" }
%"struct.Eigen::internal::plain_array" = type { [4 x double] }
%"class.std::stack" = type { %"class.std::vector" }
%"class.std::vector" = type { %"struct.std::_Vector_base" }
%"struct.std::_Vector_base" = type { %"struct.std::_Vector_base<Eigen::Matrix<double, 4, 1>, std::allocator<Eigen::Matrix<double, 4, 1>>>::_Vector_impl" }
%"struct.std::_Vector_base<Eigen::Matrix<double, 4, 1>, std::allocator<Eigen::Matrix<double, 4, 1>>>::_Vector_impl" = type { %"struct.std::_Vector_base<Eigen::Matrix<double, 4, 1>, std::allocator<Eigen::Matrix<double, 4, 1>>>::_Vector_impl_data" }
%"struct.std::_Vector_base<Eigen::Matrix<double, 4, 1>, std::allocator<Eigen::Matrix<double, 4, 1>>>::_Vector_impl_data" = type { ptr, ptr, ptr }
%"struct.Eigen::internal::evaluator" = type { %"struct.Eigen::internal::evaluator.42" }
%"struct.Eigen::internal::evaluator.42" = type { %"class.Eigen::internal::plainobjectbase_evaluator_data" }
%"class.Eigen::internal::plainobjectbase_evaluator_data" = type { ptr }

; Function Attrs: mustprogress nounwind uwtable
define linkonce_odr void @_ZN5Eigen8internal22ignore_unused_variableIlEEvRKT_(ptr noundef nonnull align 8 dereferenceable(8) %0) #1 comdat {
  %2 = alloca ptr, align 8
  store ptr %0, ptr %2, align 8
  ret void
}

; Function Attrs: mustprogress nounwind uwtable
define linkonce_odr noundef ptr @_ZNK5Eigen12DenseStorageIdLi4ELi4ELi1ELi0EE4dataEv(ptr noundef nonnull align 16 dereferenceable(32) %0) #1 comdat align 2 {
  %2 = alloca ptr, align 8
  store ptr %0, ptr %2, align 8
  %3 = load ptr, ptr %2, align 8
  %4 = getelementptr inbounds nuw %"class.Eigen::DenseStorage", ptr %3, i32 0, i32 0
  %5 = getelementptr inbounds nuw %"struct.Eigen::internal::plain_array", ptr %4, i32 0, i32 0
  %6 = getelementptr inbounds [4 x double], ptr %5, i64 0, i64 0
  ret ptr %6
}

; Function Attrs: mustprogress nounwind uwtable
define linkonce_odr void @_ZN5Eigen8internal14evaluator_baseINS_6MatrixIdLi4ELi1ELi0ELi4ELi1EEEED2Ev(ptr noundef nonnull align 1 dereferenceable(1) %0) unnamed_addr #1 comdat align 2 {
  %2 = alloca ptr, align 8
  store ptr %0, ptr %2, align 8
  ret void
}

; Function Attrs: mustprogress uwtable
define linkonce_odr void @_ZN5Eigen8internal30plainobjectbase_evaluator_dataIdLi0EEC2EPKdl(ptr noundef nonnull align 8 dereferenceable(8) %0, ptr noundef %1, i64 noundef %2) unnamed_addr #2 comdat align 2 {
  %4 = alloca ptr, align 8
  %5 = alloca ptr, align 8
  %6 = alloca i64, align 8
  store ptr %0, ptr %4, align 8
  store ptr %1, ptr %5, align 8
  store i64 %2, ptr %6, align 8
  %7 = load ptr, ptr %4, align 8
  %8 = getelementptr inbounds nuw %"class.Eigen::internal::plainobjectbase_evaluator_data", ptr %7, i32 0, i32 0
  %9 = load ptr, ptr %5, align 8
  store ptr %9, ptr %8, align 8
  call void @_ZN5Eigen8internal22ignore_unused_variableIlEEvRKT_(ptr noundef nonnull align 8 dereferenceable(8) %6)
  ret void
}

; Function Attrs: mustprogress uwtable
define linkonce_odr noundef ptr @_ZNK5Eigen15PlainObjectBaseINS_6MatrixIdLi4ELi1ELi0ELi4ELi1EEEE4dataEv(ptr noundef nonnull align 16 dereferenceable(32) %0) #2 comdat align 2 {
  %2 = alloca ptr, align 8
  store ptr %0, ptr %2, align 8
  %3 = load ptr, ptr %2, align 8
  %4 = getelementptr inbounds nuw %"class.Eigen::PlainObjectBase", ptr %3, i32 0, i32 0
  %5 = call noundef ptr @_ZNK5Eigen12DenseStorageIdLi4ELi4ELi1ELi0EE4dataEv(ptr noundef nonnull align 16 dereferenceable(32) %4)
  ret ptr %5
}

; Function Attrs: mustprogress nounwind uwtable
define linkonce_odr void @_ZN5Eigen8internal14evaluator_baseINS_6MatrixIdLi4ELi1ELi0ELi4ELi1EEEEC2Ev(ptr noundef nonnull align 1 dereferenceable(1) %0) unnamed_addr #1 comdat align 2 {
  %2 = alloca ptr, align 8
  store ptr %0, ptr %2, align 8
  ret void
}

; Function Attrs: mustprogress nounwind uwtable
define linkonce_odr void @_ZN5Eigen8internal9evaluatorINS_15PlainObjectBaseINS_6MatrixIdLi4ELi1ELi0ELi4ELi1EEEEEED2Ev(ptr noundef nonnull align 8 dereferenceable(8) %0) unnamed_addr #1 comdat align 2 {
  %2 = alloca ptr, align 8
  store ptr %0, ptr %2, align 8
  %3 = load ptr, ptr %2, align 8
  call void @_ZN5Eigen8internal14evaluator_baseINS_6MatrixIdLi4ELi1ELi0ELi4ELi1EEEED2Ev(ptr noundef nonnull align 1 dereferenceable(1) %3) #5
  ret void
}

; Function Attrs: mustprogress uwtable
define linkonce_odr void @_ZN5Eigen8internal9evaluatorINS_15PlainObjectBaseINS_6MatrixIdLi4ELi1ELi0ELi4ELi1EEEEEEC2ERKS5_(ptr noundef nonnull align 8 dereferenceable(8) %0, ptr noundef nonnull align 16 dereferenceable(32) %1) unnamed_addr #2 comdat align 2 personality ptr @__gxx_personality_v0 {
  %3 = alloca ptr, align 8
  %4 = alloca ptr, align 8
  %5 = alloca ptr, align 8
  %6 = alloca i32, align 4
  store ptr %0, ptr %3, align 8
  store ptr %1, ptr %4, align 8
  %7 = load ptr, ptr %3, align 8
  call void @_ZN5Eigen8internal14evaluator_baseINS_6MatrixIdLi4ELi1ELi0ELi4ELi1EEEEC2Ev(ptr noundef nonnull align 1 dereferenceable(1) %7)
  %8 = getelementptr inbounds nuw %"struct.Eigen::internal::evaluator.42", ptr %7, i32 0, i32 0
  %9 = load ptr, ptr %4, align 8
  %10 = invoke noundef ptr @_ZNK5Eigen15PlainObjectBaseINS_6MatrixIdLi4ELi1ELi0ELi4ELi1EEEE4dataEv(ptr noundef nonnull align 16 dereferenceable(32) %9)
          to label %11 unwind label %13

11:                                               ; preds = %2
  invoke void @_ZN5Eigen8internal30plainobjectbase_evaluator_dataIdLi0EEC2EPKdl(ptr noundef nonnull align 8 dereferenceable(8) %8, ptr noundef %10, i64 noundef 0)
          to label %12 unwind label %13

12:                                               ; preds = %11
  ret void

13:                                               ; preds = %11, %2
  %14 = landingpad { ptr, i32 }
          cleanup
  %15 = extractvalue { ptr, i32 } %14, 0
  store ptr %15, ptr %5, align 8
  %16 = extractvalue { ptr, i32 } %14, 1
  store i32 %16, ptr %6, align 4
  call void @_ZN5Eigen8internal14evaluator_baseINS_6MatrixIdLi4ELi1ELi0ELi4ELi1EEEED2Ev(ptr noundef nonnull align 1 dereferenceable(1) %7) #5
  br label %17

17:                                               ; preds = %13
  %18 = load ptr, ptr %5, align 8
  %19 = load i32, ptr %6, align 4
  %20 = insertvalue { ptr, i32 } poison, ptr %18, 0
  %21 = insertvalue { ptr, i32 } %20, i32 %19, 1
  resume { ptr, i32 } %21
}

; Function Attrs: mustprogress nounwind uwtable
define linkonce_odr noundef i64 @_ZN5Eigen12DenseStorageIdLi4ELi4ELi1ELi0EE4colsEv() #1 comdat align 2 {
  ret i64 1
}

; Function Attrs: mustprogress nounwind uwtable
define linkonce_odr noundef i64 @_ZN5Eigen12DenseStorageIdLi4ELi4ELi1ELi0EE4rowsEv() #1 comdat align 2 {
  ret i64 4
}

; Function Attrs: mustprogress nounwind uwtable
define linkonce_odr void @_ZN5Eigen8internal9evaluatorINS_6MatrixIdLi4ELi1ELi0ELi4ELi1EEEED2Ev(ptr noundef nonnull align 8 dereferenceable(8) %0) unnamed_addr #1 comdat align 2 {
  %2 = alloca ptr, align 8
  store ptr %0, ptr %2, align 8
  %3 = load ptr, ptr %2, align 8
  call void @_ZN5Eigen8internal9evaluatorINS_15PlainObjectBaseINS_6MatrixIdLi4ELi1ELi0ELi4ELi1EEEEEED2Ev(ptr noundef nonnull align 8 dereferenceable(8) %3) #5
  ret void
}

; Function Attrs: mustprogress nounwind uwtable
define linkonce_odr noundef nonnull align 8 dereferenceable(8) ptr @_ZN5Eigen8internal9evaluatorINS_15PlainObjectBaseINS_6MatrixIdLi4ELi1ELi0ELi4ELi1EEEEEE8coeffRefEl(ptr noundef nonnull align 8 dereferenceable(8) %0, i64 noundef %1) #1 comdat align 2 {
  %3 = alloca ptr, align 8
  %4 = alloca i64, align 8
  store ptr %0, ptr %3, align 8
  store i64 %1, ptr %4, align 8
  %5 = load ptr, ptr %3, align 8
  %6 = getelementptr inbounds nuw %"struct.Eigen::internal::evaluator.42", ptr %5, i32 0, i32 0
  %7 = getelementptr inbounds nuw %"class.Eigen::internal::plainobjectbase_evaluator_data", ptr %6, i32 0, i32 0
  %8 = load ptr, ptr %7, align 8
  %9 = load i64, ptr %4, align 8
  %10 = getelementptr inbounds double, ptr %8, i64 %9
  ret ptr %10
}

; Function Attrs: mustprogress uwtable
define linkonce_odr void @_ZN5Eigen8internal9evaluatorINS_6MatrixIdLi4ELi1ELi0ELi4ELi1EEEEC2ERKS3_(ptr noundef nonnull align 8 dereferenceable(8) %0, ptr noundef nonnull align 16 dereferenceable(32) %1) unnamed_addr #2 comdat align 2 {
  %3 = alloca ptr, align 8
  %4 = alloca ptr, align 8
  store ptr %0, ptr %3, align 8
  store ptr %1, ptr %4, align 8
  %5 = load ptr, ptr %3, align 8
  %6 = load ptr, ptr %4, align 8
  call void @_ZN5Eigen8internal9evaluatorINS_15PlainObjectBaseINS_6MatrixIdLi4ELi1ELi0ELi4ELi1EEEEEEC2ERKS5_(ptr noundef nonnull align 8 dereferenceable(8) %5, ptr noundef nonnull align 16 dereferenceable(32) %6)
  ret void
}

; Function Attrs: mustprogress nounwind uwtable
define linkonce_odr noundef nonnull align 16 dereferenceable(32) ptr @_ZN5Eigen9EigenBaseINS_6MatrixIdLi4ELi1ELi0ELi4ELi1EEEE7derivedEv(ptr noundef nonnull align 1 dereferenceable(1) %0) #1 comdat align 2 {
  %2 = alloca ptr, align 8
  store ptr %0, ptr %2, align 8
  %3 = load ptr, ptr %2, align 8
  ret ptr %3
}

; Function Attrs: mustprogress nounwind uwtable
define linkonce_odr noundef i64 @_ZNK5Eigen15PlainObjectBaseINS_6MatrixIdLi4ELi1ELi0ELi4ELi1EEEE4colsEv(ptr noundef nonnull align 16 dereferenceable(32) %0) #1 comdat align 2 {
  %2 = alloca ptr, align 8
  store ptr %0, ptr %2, align 8
  %3 = call noundef i64 @_ZN5Eigen12DenseStorageIdLi4ELi4ELi1ELi0EE4colsEv() #5
  ret i64 %3
}

; Function Attrs: mustprogress nounwind uwtable
define linkonce_odr noundef i64 @_ZNK5Eigen15PlainObjectBaseINS_6MatrixIdLi4ELi1ELi0ELi4ELi1EEEE4rowsEv(ptr noundef nonnull align 16 dereferenceable(32) %0) #1 comdat align 2 {
  %2 = alloca ptr, align 8
  store ptr %0, ptr %2, align 8
  %3 = call noundef i64 @_ZN5Eigen12DenseStorageIdLi4ELi4ELi1ELi0EE4rowsEv() #5
  ret i64 %3
}

; Function Attrs: mustprogress nounwind uwtable
define linkonce_odr noundef nonnull align 16 dereferenceable(32) ptr @_ZNK5Eigen9EigenBaseINS_6MatrixIdLi4ELi1ELi0ELi4ELi1EEEE7derivedEv(ptr noundef nonnull align 1 dereferenceable(1) %0) #1 comdat align 2 {
  %2 = alloca ptr, align 8
  store ptr %0, ptr %2, align 8
  %3 = load ptr, ptr %2, align 8
  ret ptr %3
}

; Function Attrs: mustprogress uwtable
define linkonce_odr noundef nonnull align 8 dereferenceable(8) ptr @_ZN5Eigen15DenseCoeffsBaseINS_6MatrixIdLi4ELi1ELi0ELi4ELi1EEELi1EE8coeffRefEl(ptr noundef nonnull align 1 dereferenceable(1) %0, i64 noundef %1) #2 comdat align 2 personality ptr @__gxx_personality_v0 {
  %3 = alloca ptr, align 8
  %4 = alloca i64, align 8
  %5 = alloca %"struct.Eigen::internal::evaluator", align 8
  %6 = alloca ptr, align 8
  %7 = alloca i32, align 4
  store ptr %0, ptr %3, align 8
  store i64 %1, ptr %4, align 8
  %8 = load ptr, ptr %3, align 8
  %9 = call noundef nonnull align 16 dereferenceable(32) ptr @_ZN5Eigen9EigenBaseINS_6MatrixIdLi4ELi1ELi0ELi4ELi1EEEE7derivedEv(ptr noundef nonnull align 1 dereferenceable(1) %8)
  call void @_ZN5Eigen8internal9evaluatorINS_6MatrixIdLi4ELi1ELi0ELi4ELi1EEEEC2ERKS3_(ptr noundef nonnull align 8 dereferenceable(8) %5, ptr noundef nonnull align 16 dereferenceable(32) %9)
  %10 = load i64, ptr %4, align 8
  %11 = invoke noundef nonnull align 8 dereferenceable(8) ptr @_ZN5Eigen8internal9evaluatorINS_15PlainObjectBaseINS_6MatrixIdLi4ELi1ELi0ELi4ELi1EEEEEE8coeffRefEl(ptr noundef nonnull align 8 dereferenceable(8) %5, i64 noundef %10)
          to label %12 unwind label %13

12:                                               ; preds = %2
  call void @_ZN5Eigen8internal9evaluatorINS_6MatrixIdLi4ELi1ELi0ELi4ELi1EEEED2Ev(ptr noundef nonnull align 8 dereferenceable(8) %5) #5
  ret ptr %11

13:                                               ; preds = %2
  %14 = landingpad { ptr, i32 }
          cleanup
  %15 = extractvalue { ptr, i32 } %14, 0
  store ptr %15, ptr %6, align 8
  %16 = extractvalue { ptr, i32 } %14, 1
  store i32 %16, ptr %7, align 4
  call void @_ZN5Eigen8internal9evaluatorINS_6MatrixIdLi4ELi1ELi0ELi4ELi1EEEED2Ev(ptr noundef nonnull align 8 dereferenceable(8) %5) #5
  br label %17

17:                                               ; preds = %13
  %18 = load ptr, ptr %6, align 8
  %19 = load i32, ptr %7, align 4
  %20 = insertvalue { ptr, i32 } poison, ptr %18, 0
  %21 = insertvalue { ptr, i32 } %20, i32 %19, 1
  resume { ptr, i32 } %21
}

; Function Attrs: mustprogress nounwind uwtable
define linkonce_odr noundef i64 @_ZNK5Eigen9EigenBaseINS_6MatrixIdLi4ELi1ELi0ELi4ELi1EEEE4colsEv(ptr noundef nonnull align 1 dereferenceable(1) %0) #1 comdat align 2 {
  %2 = alloca ptr, align 8
  store ptr %0, ptr %2, align 8
  %3 = load ptr, ptr %2, align 8
  %4 = call noundef nonnull align 16 dereferenceable(32) ptr @_ZNK5Eigen9EigenBaseINS_6MatrixIdLi4ELi1ELi0ELi4ELi1EEEE7derivedEv(ptr noundef nonnull align 1 dereferenceable(1) %3)
  %5 = call noundef i64 @_ZNK5Eigen15PlainObjectBaseINS_6MatrixIdLi4ELi1ELi0ELi4ELi1EEEE4colsEv(ptr noundef nonnull align 16 dereferenceable(32) %4) #5
  ret i64 %5
}

; Function Attrs: mustprogress nounwind uwtable
define linkonce_odr noundef i64 @_ZNK5Eigen9EigenBaseINS_6MatrixIdLi4ELi1ELi0ELi4ELi1EEEE4rowsEv(ptr noundef nonnull align 1 dereferenceable(1) %0) #1 comdat align 2 {
  %2 = alloca ptr, align 8
  store ptr %0, ptr %2, align 8
  %3 = load ptr, ptr %2, align 8
  %4 = call noundef nonnull align 16 dereferenceable(32) ptr @_ZNK5Eigen9EigenBaseINS_6MatrixIdLi4ELi1ELi0ELi4ELi1EEEE7derivedEv(ptr noundef nonnull align 1 dereferenceable(1) %3)
  %5 = call noundef i64 @_ZNK5Eigen15PlainObjectBaseINS_6MatrixIdLi4ELi1ELi0ELi4ELi1EEEE4rowsEv(ptr noundef nonnull align 16 dereferenceable(32) %4) #5
  ret i64 %5
}

; Function Attrs: mustprogress uwtable
define linkonce_odr noundef nonnull align 8 dereferenceable(8) ptr @_ZN5Eigen15DenseCoeffsBaseINS_6MatrixIdLi4ELi1ELi0ELi4ELi1EEELi1EEclEl(ptr noundef nonnull align 1 dereferenceable(1) %0, i64 noundef %1) #2 comdat align 2 {
  %3 = alloca ptr, align 8
  %4 = alloca i64, align 8
  store ptr %0, ptr %3, align 8
  store i64 %1, ptr %4, align 8
  %5 = load ptr, ptr %3, align 8
  %6 = load i64, ptr %4, align 8
  %7 = call noundef nonnull align 8 dereferenceable(8) ptr @_ZN5Eigen15DenseCoeffsBaseINS_6MatrixIdLi4ELi1ELi0ELi4ELi1EEELi1EE8coeffRefEl(ptr noundef nonnull align 1 dereferenceable(1) %5, i64 noundef %6)
  ret ptr %7
}

; Function Attrs: mustprogress nounwind uwtable
define linkonce_odr noundef i64 @_ZNK5Eigen9EigenBaseINS_6MatrixIdLi4ELi1ELi0ELi4ELi1EEEE4sizeEv(ptr noundef nonnull align 1 dereferenceable(1) %0) #1 comdat align 2 {
  %2 = alloca ptr, align 8
  store ptr %0, ptr %2, align 8
  %3 = load ptr, ptr %2, align 8
  %4 = call noundef i64 @_ZNK5Eigen9EigenBaseINS_6MatrixIdLi4ELi1ELi0ELi4ELi1EEEE4rowsEv(ptr noundef nonnull align 1 dereferenceable(1) %3) #5
  %5 = call noundef i64 @_ZNK5Eigen9EigenBaseINS_6MatrixIdLi4ELi1ELi0ELi4ELi1EEEE4colsEv(ptr noundef nonnull align 1 dereferenceable(1) %3) #5
  %6 = mul nsw i64 %4, %5
  ret i64 %6
}

; Function Attrs: mustprogress uwtable
define linkonce_odr noundef zeroext i1 @_ZN3g2o8internal10readVectorIN5Eigen6MatrixIdLi4ELi1ELi0ELi4ELi1EEEEEbRSiRNS2_9DenseBaseIT_EE(ptr noundef nonnull align 8 dereferenceable(16) %0, ptr noundef nonnull align 1 dereferenceable(1) %1) #2 comdat {
  %3 = alloca ptr, align 8
  %4 = alloca ptr, align 8
  %5 = alloca i32, align 4
  store ptr %0, ptr %3, align 8
  store ptr %1, ptr %4, align 8
  store i32 0, ptr %5, align 4
  br label %6

6:                                                ; preds = %28, %2
  %7 = load i32, ptr %5, align 4
  %8 = sext i32 %7 to i64
  %9 = load ptr, ptr %4, align 8
  %10 = call noundef i64 @_ZNK5Eigen9EigenBaseINS_6MatrixIdLi4ELi1ELi0ELi4ELi1EEEE4sizeEv(ptr noundef nonnull align 1 dereferenceable(1) %9) #5
  %11 = icmp slt i64 %8, %10
  br i1 %11, label %12, label %19

12:                                               ; preds = %6
  %13 = load ptr, ptr %3, align 8
  %14 = load ptr, ptr %13, align 8
  %15 = getelementptr i8, ptr %14, i64 -24
  %16 = load i64, ptr %15, align 8
  %17 = getelementptr inbounds i8, ptr %13, i64 %16
  %18 = call noundef zeroext i1 @_ZNKSt9basic_iosIcSt11char_traitsIcEE4goodEv(ptr noundef nonnull align 8 dereferenceable(264) %17)
  br label %19

19:                                               ; preds = %12, %6
  %20 = phi i1 [ false, %6 ], [ %18, %12 ]
  br i1 %20, label %21, label %31

21:                                               ; preds = %19
  %22 = load ptr, ptr %3, align 8
  %23 = load ptr, ptr %4, align 8
  %24 = load i32, ptr %5, align 4
  %25 = sext i32 %24 to i64
  %26 = call noundef nonnull align 8 dereferenceable(8) ptr @_ZN5Eigen15DenseCoeffsBaseINS_6MatrixIdLi4ELi1ELi0ELi4ELi1EEELi1EEclEl(ptr noundef nonnull align 1 dereferenceable(1) %23, i64 noundef %25)
  %27 = call noundef nonnull align 8 dereferenceable(16) ptr @_ZNSirsERd(ptr noundef nonnull align 8 dereferenceable(16) %22, ptr noundef nonnull align 8 dereferenceable(8) %26)
  br label %28

28:                                               ; preds = %21
  %29 = load i32, ptr %5, align 4
  %30 = add nsw i32 %29, 1
  store i32 %30, ptr %5, align 4
  br label %6, !llvm.loop !4

31:                                               ; preds = %19
  %32 = load ptr, ptr %3, align 8
  %33 = load ptr, ptr %32, align 8
  %34 = getelementptr i8, ptr %33, i64 -24
  %35 = load i64, ptr %34, align 8
  %36 = getelementptr inbounds i8, ptr %32, i64 %35
  %37 = call noundef zeroext i1 @_ZNKSt9basic_iosIcSt11char_traitsIcEE4goodEv(ptr noundef nonnull align 8 dereferenceable(264) %36)
  br i1 %37, label %45, label %38

38:                                               ; preds = %31
  %39 = load ptr, ptr %3, align 8
  %40 = load ptr, ptr %39, align 8
  %41 = getelementptr i8, ptr %40, i64 -24
  %42 = load i64, ptr %41, align 8
  %43 = getelementptr inbounds i8, ptr %39, i64 %42
  %44 = call noundef zeroext i1 @_ZNKSt9basic_iosIcSt11char_traitsIcEE3eofEv(ptr noundef nonnull align 8 dereferenceable(264) %43)
  br label %45

45:                                               ; preds = %38, %31
  %46 = phi i1 [ true, %31 ], [ %44, %38 ]
  ret i1 %46
}

; Function Attrs: mustprogress uwtable
define noundef zeroext i1 @_ZN3g2o15VertexSegment2D4readERSi(ptr noundef nonnull align 16 dereferenceable(232) %0, ptr noundef nonnull align 8 dereferenceable(16) %1) unnamed_addr #2 align 2 {
  %3 = alloca ptr, align 8
  %4 = alloca ptr, align 8
  store ptr %0, ptr %3, align 8
  store ptr %1, ptr %4, align 8
  %5 = load ptr, ptr %3, align 8
  %6 = load ptr, ptr %4, align 8
  %7 = getelementptr inbounds nuw %"class.g2o::BaseVertex", ptr %5, i32 0, i32 3
  %8 = call noundef zeroext i1 @_ZN3g2o8internal10readVectorIN5Eigen6MatrixIdLi4ELi1ELi0ELi4ELi1EEEEEbRSiRNS2_9DenseBaseIT_EE(ptr noundef nonnull align 8 dereferenceable(16) %6, ptr noundef nonnull align 1 dereferenceable(1) %7)
  ret i1 %8
}