; Function Attrs: mustprogress uwtable
define noundef zeroext i1 @_ZN3g2o15VertexSegment2D4readERSi(ptr noundef nonnull align 16 dereferenceable(232) %0, ptr noundef nonnull align 8 dereferenceable(16) %1) unnamed_addr #3 align 2 personality ptr @__gxx_personality_v0 {
  %3 = getelementptr inbounds nuw i8, ptr %0, i64 176
  br label %4

4:                                                ; preds = %10, %2
  %indvars.iv.i = phi i64 [ 0, %2 ], [ %indvars.iv.next.i, %10 ]
  %5 = load ptr, ptr %1, align 8
  %6 = getelementptr i8, ptr %5, i64 -24
  %7 = load i64, ptr %6, align 8
  %8 = getelementptr inbounds i8, ptr %1, i64 %7
  %9 = tail call noundef zeroext i1 @_ZNKSt9basic_iosIcSt11char_traitsIcEE4goodEv(ptr noundef nonnull align 8 dereferenceable(264) %8)
  br i1 %9, label %10, label %.critedge.i

10:                                               ; preds = %4
  %11 = getelementptr inbounds double, ptr %3, i64 %indvars.iv.i
  %12 = tail call noundef nonnull align 8 dereferenceable(16) ptr @_ZNSirsERd(ptr noundef nonnull align 8 dereferenceable(16) %1, ptr noundef nonnull align 8 dereferenceable(8) %11)
  %indvars.iv.next.i = add nuw nsw i64 %indvars.iv.i, 1
  %exitcond.not.i = icmp eq i64 %indvars.iv.next.i, 4
  br i1 %exitcond.not.i, label %.critedge.i, label %4, !llvm.loop !4

.critedge.i:                                      ; preds = %10, %4
  %13 = load ptr, ptr %1, align 8
  %14 = getelementptr i8, ptr %13, i64 -24
  %15 = load i64, ptr %14, align 8
  %16 = getelementptr inbounds i8, ptr %1, i64 %15
  %17 = tail call noundef zeroext i1 @_ZNKSt9basic_iosIcSt11char_traitsIcEE4goodEv(ptr noundef nonnull align 8 dereferenceable(264) %16)
  br i1 %17, label %_ZN3g2o8internal10readVectorIN5Eigen6MatrixIdLi4ELi1ELi0ELi4ELi1EEEEEbRSiRNS2_9DenseBaseIT_EE.exit, label %18

18:                                               ; preds = %.critedge.i
  %19 = load ptr, ptr %1, align 8
  %20 = getelementptr i8, ptr %19, i64 -24
  %21 = load i64, ptr %20, align 8
  %22 = getelementptr inbounds i8, ptr %1, i64 %21
  %23 = tail call noundef zeroext i1 @_ZNKSt9basic_iosIcSt11char_traitsIcEE3eofEv(ptr noundef nonnull align 8 dereferenceable(264) %22)
  br label %_ZN3g2o8internal10readVectorIN5Eigen6MatrixIdLi4ELi1ELi0ELi4ELi1EEEEEbRSiRNS2_9DenseBaseIT_EE.exit

_ZN3g2o8internal10readVectorIN5Eigen6MatrixIdLi4ELi1ELi0ELi4ELi1EEEEEbRSiRNS2_9DenseBaseIT_EE.exit: ; preds = %.critedge.i, %18
  %24 = phi i1 [ true, %.critedge.i ], [ %23, %18 ]
  ret i1 %24
}